target datalayout = "e-m:e-p270:32:32-p271:32:32-p272:64:64-i64:64-i128:128-f80:128-n8:16:32:64-S128"
target triple = "x86_64-pc-linux-gnu"

@.str.1 = private unnamed_addr constant [13 x i8] c"script_lua.c\00", align 1
@.str.56 = private unnamed_addr constant [7 x i8] c"string\00", align 1
@.str.105 = private unnamed_addr constant [52 x i8] c"lua stack limit reach when parsing redis.call reply\00", align 1
@.str.112 = private unnamed_addr constant [16 x i8] c"verbatim_string\00", align 1
@.str.113 = private unnamed_addr constant [7 x i8] c"format\00", align 1

; Function Attrs: nounwind uwtable
define internal void @redisProtocolToLuaType_VerbatimString(ptr noundef %0, ptr noundef %1, ptr noundef %2, i64 noundef %3, ptr noundef %4, i64 noundef %5) #0 {
  %7 = alloca ptr, align 8
  %8 = alloca ptr, align 8
  %9 = alloca ptr, align 8
  %10 = alloca i64, align 8
  %11 = alloca ptr, align 8
  %12 = alloca i64, align 8
  %13 = alloca ptr, align 8
  store ptr %0, ptr %7, align 8, !tbaa !12
  store ptr %1, ptr %8, align 8, !tbaa !10
  store ptr %2, ptr %9, align 8, !tbaa !10
  store i64 %3, ptr %10, align 8, !tbaa !23
  store ptr %4, ptr %11, align 8, !tbaa !10
  store i64 %5, ptr %12, align 8, !tbaa !23
  %14 = load ptr, ptr %7, align 8, !tbaa !12
  %15 = icmp ne ptr %14, null
  br i1 %15, label %17, label %16

16:                                               ; preds = %6
  br label %37

17:                                               ; preds = %6
  call void @llvm.lifetime.start.p0(i64 8, ptr %13) #12
  %18 = load ptr, ptr %7, align 8, !tbaa !12
  store ptr %18, ptr %13, align 8, !tbaa !5
  %19 = load ptr, ptr %13, align 8, !tbaa !5
  %20 = call i32 @lua_checkstack(ptr noundef %19, i32 noundef 5)
  %21 = icmp ne i32 %20, 0
  br i1 %21, label %23, label %22

22:                                               ; preds = %17
  call void (ptr, i32, ptr, ...) @_serverPanic(ptr noundef @.str.1, i32 noundef 421, ptr noundef @.str.105)
  call void @abort() #11
  unreachable

23:                                               ; preds = %17
  %24 = load ptr, ptr %13, align 8, !tbaa !5
  call void @lua_createtable(ptr noundef %24, i32 noundef 0, i32 noundef 0)
  %25 = load ptr, ptr %13, align 8, !tbaa !5
  call void @lua_pushstring(ptr noundef %25, ptr noundef @.str.112)
  %26 = load ptr, ptr %13, align 8, !tbaa !5
  call void @lua_createtable(ptr noundef %26, i32 noundef 0, i32 noundef 0)
  %27 = load ptr, ptr %13, align 8, !tbaa !5
  call void @lua_pushstring(ptr noundef %27, ptr noundef @.str.56)
  %28 = load ptr, ptr %13, align 8, !tbaa !5
  %29 = load ptr, ptr %9, align 8, !tbaa !10
  %30 = load i64, ptr %10, align 8, !tbaa !23
  call void @lua_pushlstring(ptr noundef %28, ptr noundef %29, i64 noundef %30)
  %31 = load ptr, ptr %13, align 8, !tbaa !5
  call void @lua_settable(ptr noundef %31, i32 noundef -3)
  %32 = load ptr, ptr %13, align 8, !tbaa !5
  call void @lua_pushstring(ptr noundef %32, ptr noundef @.str.113)
  %33 = load ptr, ptr %13, align 8, !tbaa !5
  %34 = load ptr, ptr %8, align 8, !tbaa !10
  call void @lua_pushlstring(ptr noundef %33, ptr noundef %34, i64 noundef 3)
  %35 = load ptr, ptr %13, align 8, !tbaa !5
  call void @lua_settable(ptr noundef %35, i32 noundef -3)
  %36 = load ptr, ptr %13, align 8, !tbaa !5
  call void @lua_settable(ptr noundef %36, i32 noundef -3)
  call void @llvm.lifetime.end.p0(i64 8, ptr %13) #12
  br label %37

37:                                               ; preds = %23, %16
  ret void
}