; Function Attrs: nounwind uwtable
define internal void @redisProtocolToLuaType_VerbatimString(ptr noundef %0, ptr noundef %1, ptr noundef %2, i64 noundef %3, ptr readnone captures(none) %4, i64 %5) #0 {
  %.not = icmp eq ptr %0, null
  br i1 %.not, label %11, label %7

7:                                                ; preds = %6
  %8 = tail call i32 @lua_checkstack(ptr noundef nonnull %0, i32 noundef 5) #11
  %.not15 = icmp eq i32 %8, 0
  br i1 %.not15, label %9, label %10

9:                                                ; preds = %7
  tail call void (ptr, i32, ptr, ...) @_serverPanic(ptr noundef nonnull @.str.1, i32 noundef 421, ptr noundef nonnull @.str.105) #11
  tail call void @abort() #12
  unreachable

10:                                               ; preds = %7
  tail call void @lua_createtable(ptr noundef nonnull %0, i32 noundef 0, i32 noundef 0) #11
  tail call void @lua_pushstring(ptr noundef nonnull %0, ptr noundef nonnull @.str.112) #11
  tail call void @lua_createtable(ptr noundef nonnull %0, i32 noundef 0, i32 noundef 0) #11
  tail call void @lua_pushstring(ptr noundef nonnull %0, ptr noundef nonnull @.str.56) #11
  tail call void @lua_pushlstring(ptr noundef nonnull %0, ptr noundef %2, i64 noundef %3) #11
  tail call void @lua_settable(ptr noundef nonnull %0, i32 noundef -3) #11
  tail call void @lua_pushstring(ptr noundef nonnull %0, ptr noundef nonnull @.str.113) #11
  tail call void @lua_pushlstring(ptr noundef nonnull %0, ptr noundef %1, i64 noundef 3) #11
  tail call void @lua_settable(ptr noundef nonnull %0, i32 noundef -3) #11
  tail call void @lua_settable(ptr noundef nonnull %0, i32 noundef -3) #11
  br label %11

11:                                               ; preds = %6, %10
  ret void
}